target datalayout = "e-m:e-p270:32:32-p271:32:32-p272:64:64-i64:64-i128:128-f80:128-n8:16:32:64-S128"
target triple = "x86_64-pc-linux-gnu"

%struct.lzma_next_coder_s = type { ptr, i64, i64, ptr, ptr, ptr, ptr, ptr, ptr, ptr }
%struct.lzma_index_coder = type { i32, ptr, %struct.lzma_index_iter, i64, i32 }
%struct.lzma_index_iter = type { %struct.anon, %struct.anon.0, [6 x %union.anon] }
%struct.anon = type { ptr, ptr, ptr, ptr, i64, i64, i64, i64, i64, i64, i64, i64, i64, i64, i64 }
%struct.anon.0 = type { i64, i64, i64, i64, i64, i64, i64, i64, i64, i64, i64, i64, i64, ptr, ptr, ptr, ptr }
%union.anon = type { ptr }
%struct.lzma_stream = type { ptr, i64, i64, ptr, i64, i64, ptr, ptr, ptr, ptr, ptr, ptr, i64, i64, i64, i64, i32, i32 }
%struct.lzma_internal_s = type { %struct.lzma_next_coder_s, i32, i64, [5 x i8], i8 }

; Function Attrs: nounwind uwtable
define internal void @index_encoder_reset(ptr noundef %0, ptr noundef %1) #0 {
  %3 = alloca ptr, align 8
  %4 = alloca ptr, align 8
  store ptr %0, ptr %3, align 8, !tbaa !9
  store ptr %1, ptr %4, align 8, !tbaa !10
  %5 = load ptr, ptr %3, align 8, !tbaa !9
  %6 = getelementptr inbounds nuw %struct.lzma_index_coder, ptr %5, i32 0, i32 2
  %7 = load ptr, ptr %4, align 8, !tbaa !10
  call void @lzma_index_iter_init(ptr noundef %6, ptr noundef %7) #5
  %8 = load ptr, ptr %3, align 8, !tbaa !9
  %9 = getelementptr inbounds nuw %struct.lzma_index_coder, ptr %8, i32 0, i32 0
  store i32 0, ptr %9, align 8, !tbaa !25
  %10 = load ptr, ptr %4, align 8, !tbaa !10
  %11 = load ptr, ptr %3, align 8, !tbaa !9
  %12 = getelementptr inbounds nuw %struct.lzma_index_coder, ptr %11, i32 0, i32 1
  store ptr %10, ptr %12, align 8, !tbaa !31
  %13 = load ptr, ptr %3, align 8, !tbaa !9
  %14 = getelementptr inbounds nuw %struct.lzma_index_coder, ptr %13, i32 0, i32 3
  store i64 0, ptr %14, align 8, !tbaa !32
  %15 = load ptr, ptr %3, align 8, !tbaa !9
  %16 = getelementptr inbounds nuw %struct.lzma_index_coder, ptr %15, i32 0, i32 4
  store i32 0, ptr %16, align 8, !tbaa !35
  ret void
}

; Function Attrs: nounwind uwtable
define dso_local i32 @lzma_index_encoder_init(ptr noundef %0, ptr noundef %1, ptr noundef %2) #0 {
  %4 = alloca i32, align 4
  %5 = alloca ptr, align 8
  %6 = alloca ptr, align 8
  %7 = alloca ptr, align 8
  store ptr %0, ptr %5, align 8, !tbaa !4
  store ptr %1, ptr %6, align 8, !tbaa !9
  store ptr %2, ptr %7, align 8, !tbaa !10
  br label %8

8:                                                ; preds = %3
  %9 = load ptr, ptr %5, align 8, !tbaa !4
  %10 = getelementptr inbounds nuw %struct.lzma_next_coder_s, ptr %9, i32 0, i32 2
  %11 = load i64, ptr %10, align 8, !tbaa !12
  %12 = icmp ne i64 ptrtoint (ptr @lzma_index_encoder_init to i64), %11
  br i1 %12, label %13, label %16

13:                                               ; preds = %8
  %14 = load ptr, ptr %5, align 8, !tbaa !4
  %15 = load ptr, ptr %6, align 8, !tbaa !9
  call void @lzma_next_end(ptr noundef %14, ptr noundef %15)
  br label %16

16:                                               ; preds = %13, %8
  %17 = load ptr, ptr %5, align 8, !tbaa !4
  %18 = getelementptr inbounds nuw %struct.lzma_next_coder_s, ptr %17, i32 0, i32 2
  store i64 ptrtoint (ptr @lzma_index_encoder_init to i64), ptr %18, align 8, !tbaa !12
  br label %19

19:                                               ; preds = %16
  %20 = load ptr, ptr %7, align 8, !tbaa !10
  %21 = icmp eq ptr %20, null
  br i1 %21, label %22, label %23

22:                                               ; preds = %19
  store i32 11, ptr %4, align 4
  br label %48

23:                                               ; preds = %19
  %24 = load ptr, ptr %5, align 8, !tbaa !4
  %25 = getelementptr inbounds nuw %struct.lzma_next_coder_s, ptr %24, i32 0, i32 0
  %26 = load ptr, ptr %25, align 8, !tbaa !15
  %27 = icmp eq ptr %26, null
  br i1 %27, label %28, label %43

28:                                               ; preds = %23
  %29 = load ptr, ptr %6, align 8, !tbaa !9
  %30 = call ptr @lzma_alloc(i64 noundef 336, ptr noundef %29)
  %31 = load ptr, ptr %5, align 8, !tbaa !4
  %32 = getelementptr inbounds nuw %struct.lzma_next_coder_s, ptr %31, i32 0, i32 0
  store ptr %30, ptr %32, align 8, !tbaa !15
  %33 = load ptr, ptr %5, align 8, !tbaa !4
  %34 = getelementptr inbounds nuw %struct.lzma_next_coder_s, ptr %33, i32 0, i32 0
  %35 = load ptr, ptr %34, align 8, !tbaa !15
  %36 = icmp eq ptr %35, null
  br i1 %36, label %37, label %38

37:                                               ; preds = %28
  store i32 5, ptr %4, align 4
  br label %48

38:                                               ; preds = %28
  %39 = load ptr, ptr %5, align 8, !tbaa !4
  %40 = getelementptr inbounds nuw %struct.lzma_next_coder_s, ptr %39, i32 0, i32 3
  store ptr @index_encode, ptr %40, align 8, !tbaa !16
  %41 = load ptr, ptr %5, align 8, !tbaa !4
  %42 = getelementptr inbounds nuw %struct.lzma_next_coder_s, ptr %41, i32 0, i32 4
  store ptr @index_encoder_end, ptr %42, align 8, !tbaa !17
  br label %43

43:                                               ; preds = %38, %23
  %44 = load ptr, ptr %5, align 8, !tbaa !4
  %45 = getelementptr inbounds nuw %struct.lzma_next_coder_s, ptr %44, i32 0, i32 0
  %46 = load ptr, ptr %45, align 8, !tbaa !15
  %47 = load ptr, ptr %7, align 8, !tbaa !10
  call void @index_encoder_reset(ptr noundef %46, ptr noundef %47)
  store i32 0, ptr %4, align 4
  br label %48

48:                                               ; preds = %43, %37, %22
  %49 = load i32, ptr %4, align 4
  ret i32 %49
}

; Function Attrs: nounwind uwtable
define dso_local i32 @lzma_index_encoder(ptr noundef %0, ptr noundef %1) #0 {
  %3 = alloca i32, align 4
  %4 = alloca ptr, align 8
  %5 = alloca ptr, align 8
  %6 = alloca i32, align 4
  %7 = alloca i32, align 4
  %8 = alloca i32, align 4
  store ptr %0, ptr %4, align 8, !tbaa !9
  store ptr %1, ptr %5, align 8, !tbaa !10
  br label %9

9:                                                ; preds = %2
  br label %10

10:                                               ; preds = %9
  call void @llvm.lifetime.start.p0(i64 4, ptr %6) #5
  %11 = load ptr, ptr %4, align 8, !tbaa !9
  %12 = call i32 @lzma_strm_init(ptr noundef %11)
  store i32 %12, ptr %6, align 4, !tbaa !23
  %13 = load i32, ptr %6, align 4, !tbaa !23
  %14 = icmp ne i32 %13, 0
  br i1 %14, label %15, label %17

15:                                               ; preds = %10
  %16 = load i32, ptr %6, align 4, !tbaa !23
  store i32 %16, ptr %3, align 4
  store i32 1, ptr %7, align 4
  br label %18

17:                                               ; preds = %10
  store i32 0, ptr %7, align 4
  br label %18

18:                                               ; preds = %17, %15
  call void @llvm.lifetime.end.p0(i64 4, ptr %6) #5
  %19 = load i32, ptr %7, align 4
  switch i32 %19, label %53 [
    i32 0, label %20
    i32 1, label %51
  ]

20:                                               ; preds = %18
  br label %21

21:                                               ; preds = %20
  call void @llvm.lifetime.start.p0(i64 4, ptr %8) #5
  %22 = load ptr, ptr %4, align 8, !tbaa !9
  %23 = getelementptr inbounds nuw %struct.lzma_stream, ptr %22, i32 0, i32 7
  %24 = load ptr, ptr %23, align 8, !tbaa !39
  %25 = getelementptr inbounds nuw %struct.lzma_internal_s, ptr %24, i32 0, i32 0
  %26 = load ptr, ptr %4, align 8, !tbaa !9
  %27 = getelementptr inbounds nuw %struct.lzma_stream, ptr %26, i32 0, i32 6
  %28 = load ptr, ptr %27, align 8, !tbaa !42
  %29 = load ptr, ptr %5, align 8, !tbaa !10
  %30 = call i32 @lzma_index_encoder_init(ptr noundef %25, ptr noundef %28, ptr noundef %29)
  store i32 %30, ptr %8, align 4, !tbaa !23
  %31 = load i32, ptr %8, align 4, !tbaa !23
  %32 = icmp ne i32 %31, 0
  br i1 %32, label %33, label %36

33:                                               ; preds = %21
  %34 = load ptr, ptr %4, align 8, !tbaa !9
  call void @lzma_end(ptr noundef %34) #5
  %35 = load i32, ptr %8, align 4, !tbaa !23
  store i32 %35, ptr %3, align 4
  store i32 1, ptr %7, align 4
  br label %37

36:                                               ; preds = %21
  store i32 0, ptr %7, align 4
  br label %37

37:                                               ; preds = %36, %33
  call void @llvm.lifetime.end.p0(i64 4, ptr %8) #5
  %38 = load i32, ptr %7, align 4
  switch i32 %38, label %53 [
    i32 0, label %39
    i32 1, label %51
  ]

39:                                               ; preds = %37
  br label %40

40:                                               ; preds = %39
  %41 = load ptr, ptr %4, align 8, !tbaa !9
  %42 = getelementptr inbounds nuw %struct.lzma_stream, ptr %41, i32 0, i32 7
  %43 = load ptr, ptr %42, align 8, !tbaa !39
  %44 = getelementptr inbounds nuw %struct.lzma_internal_s, ptr %43, i32 0, i32 3
  %45 = getelementptr inbounds [5 x i8], ptr %44, i64 0, i64 0
  store i8 1, ptr %45, align 8, !tbaa !43
  %46 = load ptr, ptr %4, align 8, !tbaa !9
  %47 = getelementptr inbounds nuw %struct.lzma_stream, ptr %46, i32 0, i32 7
  %48 = load ptr, ptr %47, align 8, !tbaa !39
  %49 = getelementptr inbounds nuw %struct.lzma_internal_s, ptr %48, i32 0, i32 3
  %50 = getelementptr inbounds [5 x i8], ptr %49, i64 0, i64 3
  store i8 1, ptr %50, align 1, !tbaa !43
  store i32 0, ptr %3, align 4
  br label %51

51:                                               ; preds = %40, %37, %18
  %52 = load i32, ptr %3, align 4
  ret i32 %52

53:                                               ; preds = %37, %18
  unreachable
}