; Function Attrs: nounwind uwtable
define dso_local i32 @lzma_index_encoder(ptr noundef %0, ptr noundef %1) local_unnamed_addr #0 {
  %3 = tail call i32 @lzma_strm_init(ptr noundef %0) #5
  %.not.not = icmp eq i32 %3, 0
  br i1 %.not.not, label %4, label %33

4:                                                ; preds = %2
  %5 = getelementptr inbounds nuw i8, ptr %0, i64 56
  %6 = load ptr, ptr %5, align 8, !tbaa !28
  %7 = getelementptr inbounds nuw i8, ptr %0, i64 48
  %8 = load ptr, ptr %7, align 8, !tbaa !32
  %9 = getelementptr inbounds nuw i8, ptr %6, i64 16
  %10 = load i64, ptr %9, align 8, !tbaa !4
  %.not.i = icmp eq i64 %10, ptrtoint (ptr @lzma_index_encoder_init to i64)
  br i1 %.not.i, label %12, label %11

11:                                               ; preds = %4
  tail call void @lzma_next_end(ptr noundef nonnull %6, ptr noundef %8) #5
  br label %12

12:                                               ; preds = %11, %4
  store i64 ptrtoint (ptr @lzma_index_encoder_init to i64), ptr %9, align 8, !tbaa !4
  %13 = icmp eq ptr %1, null
  br i1 %13, label %23, label %14

14:                                               ; preds = %12
  %15 = load ptr, ptr %6, align 8, !tbaa !10
  %16 = icmp eq ptr %15, null
  br i1 %16, label %17, label %24

17:                                               ; preds = %14
  %18 = tail call ptr @lzma_alloc(i64 noundef 336, ptr noundef %8) #5
  store ptr %18, ptr %6, align 8, !tbaa !10
  %19 = icmp eq ptr %18, null
  br i1 %19, label %23, label %20

20:                                               ; preds = %17
  %21 = getelementptr inbounds nuw i8, ptr %6, i64 24
  store ptr @index_encode, ptr %21, align 8, !tbaa !11
  %22 = getelementptr inbounds nuw i8, ptr %6, i64 32
  store ptr @index_encoder_end, ptr %22, align 8, !tbaa !12
  br label %24

23:                                               ; preds = %17, %12
  %.0.i.ph = phi i32 [ 5, %17 ], [ 11, %12 ]
  tail call void @lzma_end(ptr noundef nonnull %0) #5
  br label %33

24:                                               ; preds = %20, %14
  %25 = phi ptr [ %18, %20 ], [ %15, %14 ]
  %26 = getelementptr inbounds nuw i8, ptr %25, i64 16
  tail call void @lzma_index_iter_init(ptr noundef nonnull %26, ptr noundef nonnull %1) #5
  store i32 0, ptr %25, align 8, !tbaa !13
  %27 = getelementptr inbounds nuw i8, ptr %25, i64 8
  store ptr %1, ptr %27, align 8, !tbaa !20
  %28 = getelementptr inbounds nuw i8, ptr %25, i64 320
  store i64 0, ptr %28, align 8, !tbaa !21
  %29 = getelementptr inbounds nuw i8, ptr %25, i64 328
  store i32 0, ptr %29, align 8, !tbaa !22
  %30 = load ptr, ptr %5, align 8, !tbaa !28
  %31 = getelementptr inbounds nuw i8, ptr %30, i64 96
  store i8 1, ptr %31, align 8, !tbaa !33
  %32 = getelementptr inbounds nuw i8, ptr %30, i64 99
  store i8 1, ptr %32, align 1, !tbaa !33
  br label %33

33:                                               ; preds = %23, %2, %24
  %.1 = phi i32 [ %3, %2 ], [ %.0.i.ph, %23 ], [ 0, %24 ]
  ret i32 %.1
}